; Function Attrs: mustprogress uwtable
define dso_local void @_ZN5vcpkg4Json9stringifyB5cxx11ERKNS0_6ObjectENS0_9JsonStyleE(ptr dead_on_unwind noalias nonnull writable sret(%"class.std::__cxx11::basic_string") align 8 %0, ptr nocapture noundef nonnull readonly align 8 dereferenceable(24) %1, i32 %2, i64 %3) local_unnamed_addr #8 personality ptr @__gxx_personality_v0 {
  %5 = alloca %"struct.vcpkg::Json::(anonymous namespace)::Stringifier", align 8
  tail call void @_ZNSt7__cxx1112basic_stringIcSt11char_traitsIcESaIcEEC1Ev(ptr noundef nonnull align 8 dereferenceable(32) %0) #26
  store i32 %2, ptr %5, align 8
  %.sroa.23.0..sroa_idx = getelementptr inbounds i8, ptr %5, i64 8
  store i64 %3, ptr %.sroa.23.0..sroa_idx, align 8
  %6 = getelementptr inbounds i8, ptr %5, i64 16
  store ptr %0, ptr %6, align 8
  invoke fastcc void @_ZN5vcpkg4Json12_GLOBAL__N_111Stringifier16stringify_objectERKNS0_6ObjectEm(ptr noundef nonnull align 8 dereferenceable(24) %5, ptr noundef nonnull align 8 dereferenceable(24) %1, i64 noundef 0)
          to label %7 unwind label %8

7:                                                ; preds = %4
  invoke void @_ZNSt7__cxx1112basic_stringIcSt11char_traitsIcESaIcEE9push_backEc(ptr noundef nonnull align 8 dereferenceable(32) %0, i8 noundef signext 10)
          to label %10 unwind label %8

8:                                                ; preds = %7, %4
  %9 = landingpad { ptr, i32 }
          cleanup
  tail call void @_ZNSt7__cxx1112basic_stringIcSt11char_traitsIcESaIcEED1Ev(ptr noundef nonnull align 8 dereferenceable(32) %0) #26
  resume { ptr, i32 } %9

10:                                               ; preds = %7
  ret void
}